; Function Attrs: mustprogress uwtable
define void @_ZN2cv5utils2fs8FileLockC2EPKc(ptr noundef nonnull writeonly align 8 captures(none) dereferenceable(8) %0, ptr noundef readonly captures(none) %1) unnamed_addr #3 align 2 personality ptr @__gxx_personality_v0 {
  %3 = alloca %"class.std::__cxx11::basic_string", align 8
  %4 = alloca %"class.std::allocator", align 1
  %5 = tail call noalias noundef nonnull dereferenceable(4) ptr @_Znwm(i64 noundef 4) #28
  %6 = invoke i32 (ptr, i32, ...) @open(ptr noundef %1, i32 noundef 2)
          to label %.noexc unwind label %17

.noexc:                                           ; preds = %2
  store i32 %6, ptr %5, align 4, !tbaa !81
  %.not.i = icmp eq i32 %6, -1
  br i1 %.not.i, label %7, label %_ZN2cv5utils2fs8FileLock4ImplC2EPKc.exit

7:                                                ; preds = %.noexc
  call void @llvm.lifetime.start.p0(i64 32, ptr nonnull %3) #23
  call void @llvm.lifetime.start.p0(i64 1, ptr nonnull %4) #23
  invoke void @_ZNSt7__cxx1112basic_stringIcSt11char_traitsIcESaIcEEC2EPKcRKS3_(ptr noundef nonnull align 8 dereferenceable(32) %3, ptr noundef nonnull @.str.43, ptr noundef nonnull align 1 dereferenceable(1) %4)
          to label %.noexc3 unwind label %17

.noexc3:                                          ; preds = %7
  invoke void @_ZN2cv5errorEiRKNSt7__cxx1112basic_stringIcSt11char_traitsIcESaIcEEEPKcS9_i(i32 noundef -215, ptr noundef nonnull align 8 dereferenceable(32) %3, ptr noundef nonnull @__func__._ZN2cv5utils2fs8FileLock4ImplC2EPKc, ptr noundef nonnull @.str.3, i32 noundef 353) #25
          to label %8 unwind label %9

8:                                                ; preds = %.noexc3
  unreachable

9:                                                ; preds = %.noexc3
  %10 = landingpad { ptr, i32 }
          cleanup
  %11 = load ptr, ptr %3, align 8, !tbaa !12
  %12 = getelementptr inbounds nuw i8, ptr %3, i64 16
  %13 = icmp eq ptr %11, %12
  br i1 %13, label %_ZNKSt7__cxx1112basic_stringIcSt11char_traitsIcESaIcEE11_M_is_localEv.exit.thread.i.i.i, label %_ZNKSt7__cxx1112basic_stringIcSt11char_traitsIcESaIcEE11_M_is_localEv.exit.i.i.i

_ZNKSt7__cxx1112basic_stringIcSt11char_traitsIcESaIcEE11_M_is_localEv.exit.thread.i.i.i: ; preds = %9
  %14 = getelementptr inbounds nuw i8, ptr %3, i64 8
  %15 = load i64, ptr %14, align 8, !tbaa !3
  %16 = icmp ult i64 %15, 16
  call void @llvm.assume(i1 %16)
  br label %_ZNSt7__cxx1112basic_stringIcSt11char_traitsIcESaIcEED2Ev.exit.i

_ZNKSt7__cxx1112basic_stringIcSt11char_traitsIcESaIcEE11_M_is_localEv.exit.i.i.i: ; preds = %9
  call void @_ZdlPv(ptr noundef %11) #24
  br label %_ZNSt7__cxx1112basic_stringIcSt11char_traitsIcESaIcEED2Ev.exit.i

_ZNSt7__cxx1112basic_stringIcSt11char_traitsIcESaIcEED2Ev.exit.i: ; preds = %_ZNKSt7__cxx1112basic_stringIcSt11char_traitsIcESaIcEE11_M_is_localEv.exit.i.i.i, %_ZNKSt7__cxx1112basic_stringIcSt11char_traitsIcESaIcEE11_M_is_localEv.exit.thread.i.i.i
  call void @llvm.lifetime.end.p0(i64 1, ptr nonnull %4) #23
  call void @llvm.lifetime.end.p0(i64 32, ptr nonnull %3) #23
  br label %.body

_ZN2cv5utils2fs8FileLock4ImplC2EPKc.exit:         ; preds = %.noexc
  store ptr %5, ptr %0, align 8, !tbaa !83
  ret void

17:                                               ; preds = %7, %2
  %18 = landingpad { ptr, i32 }
          cleanup
  br label %.body

.body:                                            ; preds = %_ZNSt7__cxx1112basic_stringIcSt11char_traitsIcESaIcEED2Ev.exit.i, %17
  %eh.lpad-body = phi { ptr, i32 } [ %18, %17 ], [ %10, %_ZNSt7__cxx1112basic_stringIcSt11char_traitsIcESaIcEED2Ev.exit.i ]
  call void @_ZdlPv(ptr noundef nonnull %5) #24
  resume { ptr, i32 } %eh.lpad-body
}